; ModuleID = '9/75.c'
source_filename = "9/75.c"
target datalayout = "e-m:e-p270:32:32-p271:32:32-p272:64:64-i64:64-f80:128-n8:16:32:64-S128"
target triple = "x86_64-pc-linux-gnu"

@__const.main.t2 = private unnamed_addr constant [10 x i8] c" \00\00\00\00\00\00\00\00\00", align 1
@.str = private unnamed_addr constant [3 x i8] c"%d\00", align 1
@.str.1 = private unnamed_addr constant [5 x i8] c"%s%d\00", align 1
@.str.2 = private unnamed_addr constant [4 x i8] c"%s\0A\00", align 1

; Function Attrs: noinline nounwind uwtable
define dso_local void @main() #0 {
  %1 = alloca i32, align 4
  %2 = alloca [100 x i32], align 16
  %3 = alloca [100 x i32], align 16
  %4 = alloca i32, align 4
  %5 = alloca i32, align 4
  %6 = alloca i32, align 4
  %7 = alloca i32, align 4
  %8 = alloca i32, align 4
  %9 = alloca [100 x [10 x i8]], align 16
  %10 = alloca [10 x i8], align 1
  %11 = alloca [100 x [10 x i8]], align 16
  %12 = alloca [100 x [10 x i8]], align 16
  store i32 0, i32* %7, align 4
  store i32 0, i32* %8, align 4
  %13 = bitcast [10 x i8]* %10 to i8*
  call void @llvm.memcpy.p0i8.p0i8.i64(i8* align 1 %13, i8* align 1 getelementptr inbounds ([10 x i8], [10 x i8]* @__const.main.t2, i32 0, i32 0), i64 10, i1 false)
  %14 = bitcast [100 x [10 x i8]]* %11 to i8*
  call void @llvm.memset.p0i8.i64(i8* align 16 %14, i8 0, i64 1000, i1 false)
  %15 = bitcast i8* %14 to <{ [10 x i8], [99 x [10 x i8]] }>*
  %16 = getelementptr inbounds <{ [10 x i8], [99 x [10 x i8]] }>, <{ [10 x i8], [99 x [10 x i8]] }>* %15, i32 0, i32 0
  %17 = getelementptr inbounds [10 x i8], [10 x i8]* %16, i32 0, i32 0
  store i8 32, i8* %17, align 16
  %18 = bitcast [100 x [10 x i8]]* %12 to i8*
  call void @llvm.memset.p0i8.i64(i8* align 16 %18, i8 0, i64 1000, i1 false)
  %19 = bitcast i8* %18 to <{ [10 x i8], [99 x [10 x i8]] }>*
  %20 = getelementptr inbounds <{ [10 x i8], [99 x [10 x i8]] }>, <{ [10 x i8], [99 x [10 x i8]] }>* %19, i32 0, i32 0
  %21 = getelementptr inbounds [10 x i8], [10 x i8]* %20, i32 0, i32 0
  store i8 32, i8* %21, align 16
  %22 = call i32 (i8*, ...) @__isoc99_scanf(i8* getelementptr inbounds ([3 x i8], [3 x i8]* @.str, i64 0, i64 0), i32* %1)
  store i32 0, i32* %5, align 4
  br label %23

23:                                               ; preds = %72, %0
  %24 = load i32, i32* %5, align 4
  %25 = load i32, i32* %1, align 4
  %26 = icmp slt i32 %24, %25
  br i1 %26, label %27, label %75

27:                                               ; preds = %23
  %28 = load i32, i32* %5, align 4
  %29 = sext i32 %28 to i64
  %30 = getelementptr inbounds [100 x [10 x i8]], [100 x [10 x i8]]* %9, i64 0, i64 %29
  %31 = load i32, i32* %5, align 4
  %32 = sext i32 %31 to i64
  %33 = getelementptr inbounds [100 x i32], [100 x i32]* %2, i64 0, i64 %32
  %34 = call i32 (i8*, ...) @__isoc99_scanf(i8* getelementptr inbounds ([5 x i8], [5 x i8]* @.str.1, i64 0, i64 0), [10 x i8]* %30, i32* %33)
  %35 = load i32, i32* %5, align 4
  %36 = sext i32 %35 to i64
  %37 = getelementptr inbounds [100 x i32], [100 x i32]* %2, i64 0, i64 %36
  %38 = load i32, i32* %37, align 4
  %39 = icmp sge i32 %38, 60
  br i1 %39, label %40, label %59

40:                                               ; preds = %27
  %41 = load i32, i32* %7, align 4
  %42 = sext i32 %41 to i64
  %43 = getelementptr inbounds [100 x [10 x i8]], [100 x [10 x i8]]* %11, i64 0, i64 %42
  %44 = getelementptr inbounds [10 x i8], [10 x i8]* %43, i64 0, i64 0
  %45 = load i32, i32* %5, align 4
  %46 = sext i32 %45 to i64
  %47 = getelementptr inbounds [100 x [10 x i8]], [100 x [10 x i8]]* %9, i64 0, i64 %46
  %48 = getelementptr inbounds [10 x i8], [10 x i8]* %47, i64 0, i64 0
  %49 = call i8* @strcpy(i8* %44, i8* %48) #4
  %50 = load i32, i32* %5, align 4
  %51 = sext i32 %50 to i64
  %52 = getelementptr inbounds [100 x i32], [100 x i32]* %2, i64 0, i64 %51
  %53 = load i32, i32* %52, align 4
  %54 = load i32, i32* %7, align 4
  %55 = sext i32 %54 to i64
  %56 = getelementptr inbounds [100 x i32], [100 x i32]* %3, i64 0, i64 %55
  store i32 %53, i32* %56, align 4
  %57 = load i32, i32* %7, align 4
  %58 = add nsw i32 %57, 1
  store i32 %58, i32* %7, align 4
  br label %71

59:                                               ; preds = %27
  %60 = load i32, i32* %8, align 4
  %61 = sext i32 %60 to i64
  %62 = getelementptr inbounds [100 x [10 x i8]], [100 x [10 x i8]]* %12, i64 0, i64 %61
  %63 = getelementptr inbounds [10 x i8], [10 x i8]* %62, i64 0, i64 0
  %64 = load i32, i32* %5, align 4
  %65 = sext i32 %64 to i64
  %66 = getelementptr inbounds [100 x [10 x i8]], [100 x [10 x i8]]* %9, i64 0, i64 %65
  %67 = getelementptr inbounds [10 x i8], [10 x i8]* %66, i64 0, i64 0
  %68 = call i8* @strcpy(i8* %63, i8* %67) #4
  %69 = load i32, i32* %8, align 4
  %70 = add nsw i32 %69, 1
  store i32 %70, i32* %8, align 4
  br label %71

71:                                               ; preds = %59, %40
  br label %72

72:                                               ; preds = %71
  %73 = load i32, i32* %5, align 4
  %74 = add nsw i32 %73, 1
  store i32 %74, i32* %5, align 4
  br label %23

75:                                               ; preds = %23
  store i32 1, i32* %5, align 4
  br label %76

76:                                               ; preds = %144, %75
  %77 = load i32, i32* %5, align 4
  %78 = load i32, i32* %7, align 4
  %79 = icmp slt i32 %77, %78
  br i1 %79, label %80, label %147

80:                                               ; preds = %76
  store i32 0, i32* %6, align 4
  br label %81

81:                                               ; preds = %140, %80
  %82 = load i32, i32* %6, align 4
  %83 = load i32, i32* %7, align 4
  %84 = load i32, i32* %5, align 4
  %85 = sub nsw i32 %83, %84
  %86 = icmp slt i32 %82, %85
  br i1 %86, label %87, label %143

87:                                               ; preds = %81
  %88 = load i32, i32* %6, align 4
  %89 = sext i32 %88 to i64
  %90 = getelementptr inbounds [100 x i32], [100 x i32]* %3, i64 0, i64 %89
  %91 = load i32, i32* %90, align 4
  %92 = load i32, i32* %6, align 4
  %93 = add nsw i32 %92, 1
  %94 = sext i32 %93 to i64
  %95 = getelementptr inbounds [100 x i32], [100 x i32]* %3, i64 0, i64 %94
  %96 = load i32, i32* %95, align 4
  %97 = icmp slt i32 %91, %96
  br i1 %97, label %98, label %139

98:                                               ; preds = %87
  %99 = load i32, i32* %6, align 4
  %100 = sext i32 %99 to i64
  %101 = getelementptr inbounds [100 x i32], [100 x i32]* %3, i64 0, i64 %100
  %102 = load i32, i32* %101, align 4
  store i32 %102, i32* %4, align 4
  %103 = load i32, i32* %6, align 4
  %104 = add nsw i32 %103, 1
  %105 = sext i32 %104 to i64
  %106 = getelementptr inbounds [100 x i32], [100 x i32]* %3, i64 0, i64 %105
  %107 = load i32, i32* %106, align 4
  %108 = load i32, i32* %6, align 4
  %109 = sext i32 %108 to i64
  %110 = getelementptr inbounds [100 x i32], [100 x i32]* %3, i64 0, i64 %109
  store i32 %107, i32* %110, align 4
  %111 = load i32, i32* %4, align 4
  %112 = load i32, i32* %6, align 4
  %113 = add nsw i32 %112, 1
  %114 = sext i32 %113 to i64
  %115 = getelementptr inbounds [100 x i32], [100 x i32]* %3, i64 0, i64 %114
  store i32 %111, i32* %115, align 4
  %116 = getelementptr inbounds [10 x i8], [10 x i8]* %10, i64 0, i64 0
  %117 = load i32, i32* %6, align 4
  %118 = sext i32 %117 to i64
  %119 = getelementptr inbounds [100 x [10 x i8]], [100 x [10 x i8]]* %11, i64 0, i64 %118
  %120 = getelementptr inbounds [10 x i8], [10 x i8]* %119, i64 0, i64 0
  %121 = call i8* @strcpy(i8* %116, i8* %120) #4
  %122 = load i32, i32* %6, align 4
  %123 = sext i32 %122 to i64
  %124 = getelementptr inbounds [100 x [10 x i8]], [100 x [10 x i8]]* %11, i64 0, i64 %123
  %125 = getelementptr inbounds [10 x i8], [10 x i8]* %124, i64 0, i64 0
  %126 = load i32, i32* %6, align 4
  %127 = add nsw i32 %126, 1
  %128 = sext i32 %127 to i64
  %129 = getelementptr inbounds [100 x [10 x i8]], [100 x [10 x i8]]* %11, i64 0, i64 %128
  %130 = getelementptr inbounds [10 x i8], [10 x i8]* %129, i64 0, i64 0
  %131 = call i8* @strcpy(i8* %125, i8* %130) #4
  %132 = load i32, i32* %6, align 4
  %133 = add nsw i32 %132, 1
  %134 = sext i32 %133 to i64
  %135 = getelementptr inbounds [100 x [10 x i8]], [100 x [10 x i8]]* %11, i64 0, i64 %134
  %136 = getelementptr inbounds [10 x i8], [10 x i8]* %135, i64 0, i64 0
  %137 = getelementptr inbounds [10 x i8], [10 x i8]* %10, i64 0, i64 0
  %138 = call i8* @strcpy(i8* %136, i8* %137) #4
  br label %139

139:                                              ; preds = %98, %87
  br label %140

140:                                              ; preds = %139
  %141 = load i32, i32* %6, align 4
  %142 = add nsw i32 %141, 1
  store i32 %142, i32* %6, align 4
  br label %81

143:                                              ; preds = %81
  br label %144

144:                                              ; preds = %143
  %145 = load i32, i32* %5, align 4
  %146 = add nsw i32 %145, 1
  store i32 %146, i32* %5, align 4
  br label %76

147:                                              ; preds = %76
  store i32 0, i32* %5, align 4
  br label %148

148:                                              ; preds = %158, %147
  %149 = load i32, i32* %5, align 4
  %150 = load i32, i32* %7, align 4
  %151 = icmp slt i32 %149, %150
  br i1 %151, label %152, label %161

152:                                              ; preds = %148
  %153 = load i32, i32* %5, align 4
  %154 = sext i32 %153 to i64
  %155 = getelementptr inbounds [100 x [10 x i8]], [100 x [10 x i8]]* %11, i64 0, i64 %154
  %156 = getelementptr inbounds [10 x i8], [10 x i8]* %155, i64 0, i64 0
  %157 = call i32 (i8*, ...) @printf(i8* getelementptr inbounds ([4 x i8], [4 x i8]* @.str.2, i64 0, i64 0), i8* %156)
  br label %158

158:                                              ; preds = %152
  %159 = load i32, i32* %5, align 4
  %160 = add nsw i32 %159, 1
  store i32 %160, i32* %5, align 4
  br label %148

161:                                              ; preds = %148
  store i32 0, i32* %6, align 4
  br label %162

162:                                              ; preds = %172, %161
  %163 = load i32, i32* %6, align 4
  %164 = load i32, i32* %8, align 4
  %165 = icmp slt i32 %163, %164
  br i1 %165, label %166, label %175

166:                                              ; preds = %162
  %167 = load i32, i32* %6, align 4
  %168 = sext i32 %167 to i64
  %169 = getelementptr inbounds [100 x [10 x i8]], [100 x [10 x i8]]* %12, i64 0, i64 %168
  %170 = getelementptr inbounds [10 x i8], [10 x i8]* %169, i64 0, i64 0
  %171 = call i32 (i8*, ...) @printf(i8* getelementptr inbounds ([4 x i8], [4 x i8]* @.str.2, i64 0, i64 0), i8* %170)
  br label %172

172:                                              ; preds = %166
  %173 = load i32, i32* %6, align 4
  %174 = add nsw i32 %173, 1
  store i32 %174, i32* %6, align 4
  br label %162

175:                                              ; preds = %162
  ret void
}

; Function Attrs: argmemonly nounwind willreturn
declare void @llvm.memcpy.p0i8.p0i8.i64(i8* noalias nocapture writeonly, i8* noalias nocapture readonly, i64, i1 immarg) #1

; Function Attrs: argmemonly nounwind willreturn
declare void @llvm.memset.p0i8.i64(i8* nocapture writeonly, i8, i64, i1 immarg) #1

declare dso_local i32 @__isoc99_scanf(i8*, ...) #2

; Function Attrs: nounwind
declare dso_local i8* @strcpy(i8*, i8*) #3

declare dso_local i32 @printf(i8*, ...) #2


!llvm.module.flags = !{!0}
!llvm.ident = !{!1}

!0 = !{i32 1, !"wchar_size", i32 4}
!1 = !{!"clang version 10.0.0-4ubuntu1 "}
